	.file	"Burbuja.c"
	.text
	.section	.rodata
	.align 8
.LC0:
	.string	"Introduccion de datos incorrecta...\n ./Burbuja <# de datos>\n"
.LC1:
	.string	"\t\t<Arreglo Original>\n"
.LC2:
	.string	"\t\t<Arreglo Ordenado>\n"
	.text
	.globl	main
	.type	main, @function
main:
.LFB5:
	.cfi_startproc
	pushq	%rbp
	.cfi_def_cfa_offset 16
	.cfi_offset 6, -16
	movq	%rsp, %rbp
	.cfi_def_cfa_register 6
	subq	$32, %rsp
	movl	%edi, -20(%rbp)
	movq	%rsi, -32(%rbp)
	cmpl	$2, -20(%rbp)
	je	.L2
	leaq	.LC0(%rip), %rdi
	call	perror@PLT
	movl	$1, %edi
	call	exit@PLT
.L2:
	movq	-32(%rbp), %rax
	addq	$8, %rax
	movq	(%rax), %rax
	movq	%rax, %rdi
	call	atoi@PLT
	movl	%eax, -12(%rbp)
	call	getpid@PLT
	movl	%eax, %edi
	call	srand@PLT
	movl	-12(%rbp), %eax
	movl	%eax, %edi
	call	reservarMemoria
	movq	%rax, -8(%rbp)
	movl	-12(%rbp), %edx
	movq	-8(%rbp), %rax
	movl	%edx, %esi
	movq	%rax, %rdi
	call	llenarArreglo
	leaq	.LC1(%rip), %rdi
	call	puts@PLT
	movl	-12(%rbp), %edx
	movq	-8(%rbp), %rax
	movl	%edx, %esi
	movq	%rax, %rdi
	call	imprimirArreglo
	movl	-12(%rbp), %edx
	movq	-8(%rbp), %rax
	movl	%edx, %esi
	movq	%rax, %rdi
	call	burbuja
	leaq	.LC2(%rip), %rdi
	call	puts@PLT
	movl	-12(%rbp), %edx
	movq	-8(%rbp), %rax
	movl	%edx, %esi
	movq	%rax, %rdi
	call	imprimirArreglo
	movq	-8(%rbp), %rax
	movq	%rax, %rdi
	call	free@PLT
	movl	$0, %eax
	leave
	.cfi_def_cfa 7, 8
	ret
	.cfi_endproc
.LFE5:
	.size	main, .-main
	.globl	llenarArreglo
	.type	llenarArreglo, @function
llenarArreglo:
.LFB6:
	.cfi_startproc
	pushq	%rbp
	.cfi_def_cfa_offset 16
	.cfi_offset 6, -16
	movq	%rsp, %rbp
	.cfi_def_cfa_register 6
	subq	$32, %rsp
	movq	%rdi, -24(%rbp)
	movl	%esi, -28(%rbp)
	movl	$0, -4(%rbp)
	jmp	.L5
.L6:
	call	rand@PLT
	movl	%eax, %ecx
	movl	-4(%rbp), %eax
	cltq
	leaq	0(,%rax,4), %rdx
	movq	-24(%rbp), %rax
	leaq	(%rdx,%rax), %rsi
	movl	$274877907, %edx
	movl	%ecx, %eax
	imull	%edx
	sarl	$6, %edx
	movl	%ecx, %eax
	sarl	$31, %eax
	subl	%eax, %edx
	movl	%edx, %eax
	imull	$1000, %eax, %eax
	subl	%eax, %ecx
	movl	%ecx, %eax
	movl	%eax, (%rsi)
	addl	$1, -4(%rbp)
.L5:
	movl	-4(%rbp), %eax
	cmpl	-28(%rbp), %eax
	jl	.L6
	nop
	leave
	.cfi_def_cfa 7, 8
	ret
	.cfi_endproc
.LFE6:
	.size	llenarArreglo, .-llenarArreglo
	.section	.rodata
.LC3:
	.string	"%3d "
.LC4:
	.string	"\n"
	.text
	.globl	imprimirArreglo
	.type	imprimirArreglo, @function
imprimirArreglo:
.LFB7:
	.cfi_startproc
	pushq	%rbp
	.cfi_def_cfa_offset 16
	.cfi_offset 6, -16
	movq	%rsp, %rbp
	.cfi_def_cfa_register 6
	subq	$32, %rsp
	movq	%rdi, -24(%rbp)
	movl	%esi, -28(%rbp)
	movl	$0, -4(%rbp)
	jmp	.L8
.L10:
	movl	-4(%rbp), %ecx
	movl	$-1840700269, %edx
	movl	%ecx, %eax
	imull	%edx
	leal	(%rdx,%rcx), %eax
	sarl	$3, %eax
	movl	%eax, %edx
	movl	%ecx, %eax
	sarl	$31, %eax
	subl	%eax, %edx
	movl	%edx, %eax
	imull	$14, %eax, %eax
	subl	%eax, %ecx
	movl	%ecx, %eax
	testl	%eax, %eax
	jne	.L9
	cmpl	$0, -4(%rbp)
	je	.L9
	movl	$10, %edi
	call	putchar@PLT
.L9:
	movl	-4(%rbp), %eax
	cltq
	leaq	0(,%rax,4), %rdx
	movq	-24(%rbp), %rax
	addq	%rdx, %rax
	movl	(%rax), %eax
	movl	%eax, %esi
	leaq	.LC3(%rip), %rdi
	movl	$0, %eax
	call	printf@PLT
	addl	$1, -4(%rbp)
.L8:
	movl	-4(%rbp), %eax
	cmpl	-28(%rbp), %eax
	jl	.L10
	leaq	.LC4(%rip), %rdi
	call	puts@PLT
	nop
	leave
	.cfi_def_cfa 7, 8
	ret
	.cfi_endproc
.LFE7:
	.size	imprimirArreglo, .-imprimirArreglo
	.section	.rodata
.LC5:
	.string	"Error al asignar memoria..."
	.text
	.globl	reservarMemoria
	.type	reservarMemoria, @function
reservarMemoria:
.LFB8:
	.cfi_startproc
	pushq	%rbp
	.cfi_def_cfa_offset 16
	.cfi_offset 6, -16
	movq	%rsp, %rbp
	.cfi_def_cfa_register 6
	subq	$32, %rsp
	movl	%edi, -20(%rbp)
	movl	-20(%rbp), %eax
	cltq
	salq	$2, %rax
	movq	%rax, %rdi
	call	malloc@PLT
	movq	%rax, -8(%rbp)
	cmpq	$0, -8(%rbp)
	jne	.L12
	leaq	.LC5(%rip), %rdi
	call	perror@PLT
	movl	$1, %edi
	call	exit@PLT
.L12:
	movq	-8(%rbp), %rax
	leave
	.cfi_def_cfa 7, 8
	ret
	.cfi_endproc
.LFE8:
	.size	reservarMemoria, .-reservarMemoria
	.globl	burbuja
	.type	burbuja, @function
burbuja:
.LFB9:
	.cfi_startproc
	pushq	%rbp
	.cfi_def_cfa_offset 16
	.cfi_offset 6, -16
	movq	%rsp, %rbp
	.cfi_def_cfa_register 6
	pushq	%r12
	pushq	%rbx
	.cfi_offset 12, -24
	.cfi_offset 3, -32
	movq	%rdi, -40(%rbp)
	movl	%esi, -44(%rbp)
	movl	$1, %r12d
	jmp	.L15
.L19:
	movl	$0, %ebx
	jmp	.L16
.L18:
	movslq	%ebx, %rax
	leaq	0(,%rax,4), %rdx
	movq	-40(%rbp), %rax
	addq	%rdx, %rax
	movl	(%rax), %edx
	movslq	%ebx, %rax
	addq	$1, %rax
	leaq	0(,%rax,4), %rcx
	movq	-40(%rbp), %rax
	addq	%rcx, %rax
	movl	(%rax), %eax
	cmpl	%eax, %edx
	jle	.L17
	movslq	%ebx, %rax
	leaq	0(,%rax,4), %rdx
	movq	-40(%rbp), %rax
	addq	%rdx, %rax
	movl	(%rax), %eax
	movl	%eax, -20(%rbp)
	movslq	%ebx, %rax
	addq	$1, %rax
	leaq	0(,%rax,4), %rdx
	movq	-40(%rbp), %rax
	addq	%rdx, %rax
	movslq	%ebx, %rdx
	leaq	0(,%rdx,4), %rcx
	movq	-40(%rbp), %rdx
	addq	%rcx, %rdx
	movl	(%rax), %eax
	movl	%eax, (%rdx)
	movslq	%ebx, %rax
	addq	$1, %rax
	leaq	0(,%rax,4), %rdx
	movq	-40(%rbp), %rax
	addq	%rax, %rdx
	movl	-20(%rbp), %eax
	movl	%eax, (%rdx)
.L17:
	addl	$1, %ebx
.L16:
	movl	-44(%rbp), %eax
	subl	$1, %eax
	cmpl	%eax, %ebx
	jl	.L18
	addl	$1, %r12d
.L15:
	movl	-44(%rbp), %eax
	subl	$1, %eax
	cmpl	%eax, %r12d
	jl	.L19
	nop
	popq	%rbx
	popq	%r12
	popq	%rbp
	.cfi_def_cfa 7, 8
	ret
	.cfi_endproc
.LFE9:
	.size	burbuja, .-burbuja
	.ident	"GCC: (Ubuntu 7.5.0-3ubuntu1~18.04) 7.5.0"
	.section	.note.GNU-stack,"",@progbits
